Certificate:
    Data:
        Version: 3 (0x2)
        Serial Number: 9 (0x9)
    Signature Algorithm: sha256WithRSAEncryption
        Issuer: C=SE, ST=Stockholm, L=Stockholm, O=Bonnier News, OU=DEX, CN=DEX Root CA
        Validity
            Not Before: Sep 12 10:36:56 2016 GMT
            Not After : Sep 12 10:36:56 2026 GMT
        Subject: C=SE, ST=Stockholm, L=Stockholm, O=Bonnier News, OU=DEX, CN=XPR CA
        Subject Public Key Info:
            Public Key Algorithm: rsaEncryption
                Public-Key: (4096 bit)
                Modulus:
                    00:d6:7a:96:45:86:08:fb:16:c2:20:b4:cb:d4:4e:
                    83:e6:bb:a4:cf:c5:3f:a7:34:43:53:bb:87:73:16:
                    27:fe:8f:68:25:ee:ae:2c:e3:1f:a1:54:86:37:71:
                    f9:a6:1e:19:4e:3e:dd:47:91:58:38:8e:30:e2:64:
                    b6:a5:5f:55:9e:6b:7e:63:f4:00:ee:e2:03:2c:1d:
                    1f:06:c6:6a:89:36:42:c6:68:9d:5b:62:92:9e:62:
                    3b:66:2f:82:55:4e:b3:b8:32:b2:52:55:ad:45:12:
                    bf:c8:54:ff:70:29:43:a8:60:79:8b:0c:aa:b9:89:
                    04:2a:60:55:d8:a5:5a:15:dc:dc:2f:d9:c5:1a:f3:
                    28:bf:98:dd:6c:1f:8b:78:f7:a9:1b:71:cc:87:b3:
                    d8:14:1f:8d:50:0d:72:84:26:93:ab:c0:20:89:60:
                    80:a0:96:52:20:09:4f:99:02:ea:5c:b7:e5:86:b8:
                    cf:f9:c8:35:12:10:72:69:90:c0:61:bf:60:72:70:
                    c8:34:14:5f:9e:19:57:f5:a1:98:23:ae:2b:63:55:
                    32:ff:9b:f1:53:3c:fd:0c:69:fb:01:9d:b7:8d:c9:
                    53:72:4f:d9:db:4d:f5:06:a2:a9:82:96:90:7a:fc:
                    ea:de:bb:e6:52:42:fc:6f:4c:73:25:1b:b5:3f:33:
                    7c:28:61:a1:19:8f:89:d8:62:8c:29:fc:c6:dd:91:
                    67:29:cb:f5:97:5b:ea:da:e0:43:1f:96:b1:4a:57:
                    f7:a5:0f:d2:21:f9:ea:ce:64:70:3c:0a:86:72:2f:
                    b2:10:6c:91:34:16:24:3e:ad:22:99:65:2a:cb:e1:
                    20:39:92:8f:90:ad:6d:dc:10:8e:f1:56:98:5d:bf:
                    28:a7:3e:29:29:e5:88:e9:ba:c9:c6:86:ac:64:30:
                    b6:e0:f1:16:55:88:1b:d3:77:99:3f:ec:a6:70:ee:
                    35:8e:90:51:59:63:17:27:fb:c0:95:53:49:c3:15:
                    dc:8e:9a:f9:19:14:07:8e:85:06:d6:54:91:79:84:
                    2c:9d:1d:b6:e8:90:ca:47:88:4f:06:1c:35:93:25:
                    78:44:3d:ee:a8:71:14:1c:cc:76:fd:d5:fb:23:5b:
                    9e:20:ea:ab:e1:12:a8:55:a1:45:72:b0:85:4c:f8:
                    16:82:ff:e2:90:d4:5f:2f:27:fb:7d:fb:5e:db:42:
                    c0:44:88:5c:18:fe:cc:3d:ea:60:81:7d:fe:40:e4:
                    58:26:66:cd:2a:c8:c7:94:2c:06:37:52:85:48:93:
                    a7:71:1e:2e:9e:e8:51:d1:7e:cc:81:07:77:d9:6a:
                    73:a6:4f:23:fa:85:bb:58:6d:2a:db:03:ea:fb:32:
                    ea:63:cd
                Exponent: 65537 (0x10001)
        X509v3 extensions:
            X509v3 Basic Constraints: critical
                CA:TRUE, pathlen:0
            X509v3 Subject Key Identifier: 
                B9:C1:B3:3F:53:C2:0B:5C:45:85:16:41:AB:44:61:3C:AC:70:8A:1C
            X509v3 Authority Key Identifier: 
                keyid:40:42:18:8B:4F:89:A5:43:CB:FA:0D:41:4C:A8:14:B0:84:C8:20:96

            X509v3 Key Usage: critical
                Digital Signature, Certificate Sign, CRL Sign
            Authority Information Access: 
                CA Issuers - URI:http://ca.dex.nu/DEX-Root-CA.crt

            X509v3 CRL Distribution Points: 

                Full Name:
                  URI:http://ca.dex.nu/DEX-Root-CA.crl

    Signature Algorithm: sha256WithRSAEncryption
         02:46:6b:d4:c9:71:e5:30:9c:a4:f8:ef:f1:98:ef:0d:1b:14:
         23:63:de:cd:21:b6:aa:4d:34:81:38:cf:8a:6a:3e:52:06:7b:
         a9:53:33:d8:9f:24:b8:e6:73:34:78:8f:f0:c3:cc:b1:d4:bd:
         42:5a:04:99:42:e5:16:b7:d6:9c:a2:8a:df:fe:96:a5:fc:e4:
         5f:ba:1d:5e:ac:dd:ca:90:d1:79:42:81:a4:8f:1a:77:85:9b:
         9c:7d:db:99:c4:5d:ae:7d:80:83:82:e4:47:f5:27:9e:b6:e8:
         c7:aa:52:8b:4a:06:e0:0a:0a:c9:77:d6:0f:86:58:20:6d:e7:
         96:12:8a:76:e2:5a:a8:5b:0c:06:87:a9:78:10:f0:9f:7e:e1:
         67:4f:8a:cc:58:73:83:01:78:84:56:0c:04:40:d0:94:b5:86:
         1e:64:5e:60:31:00:09:4f:7e:8e:0a:65:b2:12:44:c3:88:cb:
         c0:93:32:24:6a:39:28:fa:8f:6d:30:6e:68:49:6b:de:25:2a:
         bb:33:7f:e6:bd:fd:3b:26:b4:8b:a5:73:fd:43:25:70:16:3d:
         ee:d6:a6:c3:7f:46:3a:5f:f0:d5:67:d4:cb:c4:ee:b9:ed:5e:
         50:53:d8:e6:fc:5e:69:95:63:46:93:ab:74:08:d5:ad:3e:78:
         e9:2c:17:20:af:49:84:d5:68:c8:a8:0e:6d:59:3b:c7:e7:35:
         4b:42:1d:33:01:3b:c3:cc:97:df:0c:f3:ca:69:65:a9:90:df:
         ab:91:6d:78:01:a8:e1:14:4f:7f:f0:ff:ce:54:23:90:87:62:
         cf:e9:fe:a9:7b:b0:e6:0d:2c:66:10:c7:88:e5:f1:b9:40:26:
         f7:83:f0:b6:01:48:4c:21:36:88:f3:ba:d6:da:02:f9:c2:6b:
         f1:0f:d2:6a:ff:68:21:64:cf:ee:ca:6d:f2:90:79:47:33:23:
         c1:c4:6d:59:91:ad:fd:33:ae:c0:6a:ba:52:b7:7f:22:d7:80:
         ab:5f:78:aa:a1:58:34:37:63:4b:37:10:c9:87:5e:98:62:fd:
         06:c7:44:6a:3a:cb:59:d8:b2:fe:ea:a3:eb:81:75:4a:7d:8a:
         db:3b:10:3b:3f:9c:f2:38:0b:1a:00:90:84:e0:c5:c0:57:32:
         9b:d9:7d:20:24:d8:aa:26:3e:04:88:bb:a5:b9:1f:9d:c9:a9:
         79:8d:1f:07:74:3d:8e:e9:d6:38:70:e6:50:1b:4d:9e:68:48:
         0c:8d:ad:ae:f7:a3:09:2e:87:60:b3:64:8a:fa:bf:09:a0:6a:
         60:91:f1:aa:8e:44:18:62:fe:aa:81:d9:a7:fd:ce:96:c1:aa:
         d0:f3:86:d3:c5:6b:0b:9b:97:5c:e4:b6:55:66:bd:06:09:7a:
         e2:55:bb:f1:56:25:76:5e:13:04:ec:1a:8b:bc:88:31:73:74:
         0f:f3:6c:a1:b8:a5:81:4d:b0:56:9b:47:d9:1f:11:92:df:8e:
         14:50:1c:59:da:10:f8:af:06:ca:54:bb:64:97:1b:a4:88:eb:
         ca:ab:62:ad:36:3f:7f:c0:d5:35:bc:8d:63:13:3c:a2:9f:6d:
         46:f0:12:0c:c3:18:87:2c:ed:35:fe:11:02:ce:e0:f4:3f:7a:
         5b:de:f6:2f:e3:8f:17:0f:27:1b:86:e2:72:bd:6f:6a:3f:01:
         5f:f0:bf:52:46:f7:7c:9e:61:2d:ba:55:5a:95:c1:e5:57:19:
         71:ae:ec:6d:f3:ec:01:7b:12:74:42:88:bb:d2:f8:a7:2c:5b:
         1a:24:30:93:86:eb:83:6c:33:b3:6f:5c:7f:50:fe:37:86:c3:
         4c:93:4e:86:94:2d:79:ec:6c:e4:23:82:31:50:18:0a:3c:a4:
         20:77:52:bc:16:08:1c:d8:5b:03:f0:4d:e6:11:17:1b:43:83:
         2f:59:a3:e6:cb:99:7e:1d:2b:e5:7f:bd:9e:30:34:4e:f4:32:
         bd:53:47:c6:4c:f8:56:d1:4f:5a:9b:00:cf:c7:23:e3:a7:7f:
         a6:c5:46:1c:d6:dc:38:3b:bc:b2:0b:e2:ee:54:7b:81:c7:bd:
         f4:cf:d6:fc:6e:40:ec:e6:ba:aa:e4:2a:af:10:97:9f:b8:9f:
         39:0d:ba:d6:dc:17:3f:83:d0:65:f3:27:fe:36:98:4c:c5:a9:
         e6:a3:94:96:74:c8:b3:2a:d7:f4:cd:73:fa:c9:ca:6d:68:d7:
         c1:48:a6:39:c6:fb:bb:23:99:61:ca:d1:14:f8:7c:31:b4:23:
         7c:a4:06:58:5c:61:a8:b2:2b:f5:5a:d8:b3:9e:47:ec:f7:7d:
         e5:50:43:0c:0b:11:cc:d6:2c:9a:7b:f6:3d:72:32:3d:68:6f:
         31:42:fb:eb:54:5a:96:39:12:a9:34:22:54:c9:0d:c2:37:e8:
         fc:77:5b:9b:83:68:00:43:03:0a:5e:7e:ee:cc:61:68:ce:0f:
         14:8b:dc:a0:5f:66:50:8f:55:0b:a2:b0:4b:a9:ea:4c:dd:23:
         0f:0b:6b:5f:98:99:0d:52:c7:ad:17:7f:f6:c1:4f:fa:c9:02:
         8f:db:d1:4c:7e:f6:79:55:1a:f9:24:2f:c5:72:20:0f:ed:9f:
         e3:df:22:44:15:c1:d4:06:0f:57:d7:a6:4f:53:f3:0f:c2:5c:
         83:8d:cf:0f:9f:bd:ed:bc:49:0b:04:f0:b8:ff:0a:f8:55:71:
         37:df:ae:c5:d1:e0:88:08:91:c0:6a:c4:21:de:5a:fb:eb
-----BEGIN CERTIFICATE-----
MIIIMDCCBBegAwIBAgIBCTANBgkqhkiG9w0BAQsFADBwMQswCQYDVQQGEwJTRTES
MBAGA1UECAwJU3RvY2tob2xtMRIwEAYDVQQHDAlTdG9ja2hvbG0xFTATBgNVBAoM
DEJvbm5pZXIgTmV3czEMMAoGA1UECwwDREVYMRQwEgYDVQQDDAtERVggUm9vdCBD
QTAeFw0xNjA5MTIxMDM2NTZaFw0yNjA5MTIxMDM2NTZaMGsxCzAJBgNVBAYTAlNF
MRIwEAYDVQQIDAlTdG9ja2hvbG0xEjAQBgNVBAcMCVN0b2NraG9sbTEVMBMGA1UE
CgwMQm9ubmllciBOZXdzMQwwCgYDVQQLDANERVgxDzANBgNVBAMMBlhQUiBDQTCC
AiIwDQYJKoZIhvcNAQEBBQADggIPADCCAgoCggIBANZ6lkWGCPsWwiC0y9ROg+a7
pM/FP6c0Q1O7h3MWJ/6PaCXurizjH6FUhjdx+aYeGU4+3UeRWDiOMOJktqVfVZ5r
fmP0AO7iAywdHwbGaok2QsZonVtikp5iO2YvglVOs7gyslJVrUUSv8hU/3ApQ6hg
eYsMqrmJBCpgVdilWhXc3C/ZxRrzKL+Y3Wwfi3j3qRtxzIez2BQfjVANcoQmk6vA
IIlggKCWUiAJT5kC6ly35Ya4z/nINRIQcmmQwGG/YHJwyDQUX54ZV/WhmCOuK2NV
Mv+b8VM8/Qxp+wGdt43JU3JP2dtN9QaiqYKWkHr86t675lJC/G9McyUbtT8zfChh
oRmPidhijCn8xt2RZynL9Zdb6trgQx+WsUpX96UP0iH56s5kcDwKhnIvshBskTQW
JD6tIpllKsvhIDmSj5CtbdwQjvFWmF2/KKc+KSnliOm6ycaGrGQwtuDxFlWIG9N3
mT/spnDuNY6QUVljFyf7wJVTScMV3I6a+RkUB46FBtZUkXmELJ0dtuiQykeITwYc
NZMleEQ97qhxFBzMdv3V+yNbniDqq+ESqFWhRXKwhUz4FoL/4pDUXy8n+337XttC
wESIXBj+zD3qYIF9/kDkWCZmzSrIx5QsBjdShUiTp3EeLp7oUdF+zIEHd9lqc6ZP
I/qFu1htKtsD6vsy6mPNAgMBAAGjgdgwgdUwEgYDVR0TAQH/BAgwBgEB/wIBADAd
BgNVHQ4EFgQUucGzP1PCC1xFhRZBq0RhPKxwihwwHwYDVR0jBBgwFoAUQEIYi0+J
pUPL+g1BTKgUsITIIJYwDgYDVR0PAQH/BAQDAgGGMDwGCCsGAQUFBwEBBDAwLjAs
BggrBgEFBQcwAoYgaHR0cDovL2NhLmRleC5udS9ERVgtUm9vdC1DQS5jcnQwMQYD
VR0fBCowKDAmoCSgIoYgaHR0cDovL2NhLmRleC5udS9ERVgtUm9vdC1DQS5jcmww
DQYJKoZIhvcNAQELBQADggQCAAJGa9TJceUwnKT47/GY7w0bFCNj3s0htqpNNIE4
z4pqPlIGe6lTM9ifJLjmczR4j/DDzLHUvUJaBJlC5Ra31pyiit/+lqX85F+6HV6s
3cqQ0XlCgaSPGneFm5x925nEXa59gIOC5Ef1J5626MeqUotKBuAKCsl31g+GWCBt
55YSinbiWqhbDAaHqXgQ8J9+4WdPisxYc4MBeIRWDARA0JS1hh5kXmAxAAlPfo4K
ZbISRMOIy8CTMiRqOSj6j20wbmhJa94lKrszf+a9/TsmtIulc/1DJXAWPe7WpsN/
Rjpf8NVn1MvE7rntXlBT2Ob8XmmVY0aTq3QI1a0+eOksFyCvSYTVaMioDm1ZO8fn
NUtCHTMBO8PMl98M88ppZamQ36uRbXgBqOEUT3/w/85UI5CHYs/p/ql7sOYNLGYQ
x4jl8blAJveD8LYBSEwhNojzutbaAvnCa/EP0mr/aCFkz+7KbfKQeUczI8HEbVmR
rf0zrsBqulK3fyLXgKtfeKqhWDQ3Y0s3EMmHXphi/QbHRGo6y1nYsv7qo+uBdUp9
its7EDs/nPI4CxoAkITgxcBXMpvZfSAk2KomPgSIu6W5H53JqXmNHwd0PY7p1jhw
5lAbTZ5oSAyNra73owkuh2CzZIr6vwmgamCR8aqORBhi/qqB2af9zpbBqtDzhtPF
awubl1zktlVmvQYJeuJVu/FWJXZeEwTsGou8iDFzdA/zbKG4pYFNsFabR9kfEZLf
jhRQHFnaEPivBspUu2SXG6SI68qrYq02P3/A1TW8jWMTPKKfbUbwEgzDGIcs7TX+
EQLO4PQ/elve9i/jjxcPJxuG4nK9b2o/AV/wv1JG93yeYS26VVqVweVXGXGu7G3z
7AF7EnRCiLvS+KcsWxokMJOG64NsM7NvXH9Q/jeGw0yTToaULXnsbOQjgjFQGAo8
pCB3UrwWCBzYWwPwTeYRFxtDgy9Zo+bLmX4dK+V/vZ4wNE70Mr1TR8ZM+FbRT1qb
AM/HI+Onf6bFRhzW3Dg7vLIL4u5Ue4HHvfTP1vxuQOzmuqrkKq8Ql5+4nzkNutbc
Fz+D0GXzJ/42mEzFqeajlJZ0yLMq1/TNc/rJym1o18FIpjnG+7sjmWHK0RT4fDG0
I3ykBlhcYaiyK/Va2LOeR+z3feVQQwwLEczWLJp79j1yMj1obzFC++tUWpY5Eqk0
IlTJDcI36Px3W5uDaABDAwpefu7MYWjODxSL3KBfZlCPVQuisEup6kzdIw8La1+Y
mQ1Sx60Xf/bBT/rJAo/b0Ux+9nlVGvkkL8VyIA/tn+PfIkQVwdQGD1fXpk9T8w/C
XIONzw+fve28SQsE8Lj/CvhVcTffrsXR4IgIkcBqxCHeWvvr
-----END CERTIFICATE-----
